target datalayout = "e-m:e-p270:32:32-p271:32:32-p272:64:64-i64:64-i128:128-f80:128-n8:16:32:64-S128"
target triple = "x86_64-pc-linux-gnu"

%struct.rb_data_type_struct = type { ptr, %struct.anon, ptr, ptr, i64 }
%struct.anon = type { ptr, ptr, ptr, ptr, [1 x ptr] }
%struct.RTypedData = type { %struct.RBasic, ptr, i64, ptr }
%struct.RBasic = type { i64, i64 }
%struct.pkcs7_signer_info_st = type { ptr, ptr, ptr, ptr, ptr, ptr, ptr, ptr, ptr }

@ossl_pkcs7_type = internal constant %struct.rb_data_type_struct { ptr @.str.53, %struct.anon { ptr null, ptr @ossl_pkcs7_free, ptr null, ptr null, [1 x ptr] zeroinitializer }, ptr null, ptr null, i64 33 }, align 8
@ePKCS7Error = internal global i64 0, align 8
@rb_eRuntimeError = external global i64, align 8
@.str.1 = private unnamed_addr constant [26 x i8] c"PKCS7 wasn't initialized.\00", align 1
@cPKCS7Signer = internal global i64 0, align 8
@ossl_pkcs7_signer_info_type = internal constant %struct.rb_data_type_struct { ptr @.str.76, %struct.anon { ptr null, ptr @ossl_pkcs7_signer_info_free, ptr null, ptr null, [1 x ptr] zeroinitializer }, ptr null, ptr null, i64 33 }, align 8
@.str.73 = private unnamed_addr constant [28 x i8] c"PKCS7si wasn't initialized.\00", align 1

; Function Attrs: nounwind sspstrong uwtable
define internal ptr @ossl_PKCS7_SIGNER_INFO_dup(ptr noundef %0) #0 {
  %2 = alloca ptr, align 8
  %3 = alloca ptr, align 8
  store ptr %0, ptr %2, align 8, !tbaa !40
  call void @llvm.lifetime.start.p0(i64 8, ptr %3) #16
  %4 = load ptr, ptr %2, align 8, !tbaa !40
  %5 = call ptr @ASN1_dup(ptr noundef @i2d_PKCS7_SIGNER_INFO, ptr noundef @d2i_PKCS7_SIGNER_INFO, ptr noundef %4)
  store ptr %5, ptr %3, align 8, !tbaa !40
  %6 = load ptr, ptr %3, align 8, !tbaa !40
  %7 = icmp ne ptr %6, null
  br i1 %7, label %8, label %23

8:                                                ; preds = %1
  %9 = load ptr, ptr %2, align 8, !tbaa !40
  %10 = getelementptr inbounds nuw %struct.pkcs7_signer_info_st, ptr %9, i32 0, i32 7
  %11 = load ptr, ptr %10, align 8, !tbaa !103
  %12 = icmp ne ptr %11, null
  br i1 %12, label %13, label %23

13:                                               ; preds = %8
  %14 = load ptr, ptr %2, align 8, !tbaa !40
  %15 = getelementptr inbounds nuw %struct.pkcs7_signer_info_st, ptr %14, i32 0, i32 7
  %16 = load ptr, ptr %15, align 8, !tbaa !103
  %17 = call i32 @EVP_PKEY_up_ref(ptr noundef %16)
  %18 = load ptr, ptr %2, align 8, !tbaa !40
  %19 = getelementptr inbounds nuw %struct.pkcs7_signer_info_st, ptr %18, i32 0, i32 7
  %20 = load ptr, ptr %19, align 8, !tbaa !103
  %21 = load ptr, ptr %3, align 8, !tbaa !40
  %22 = getelementptr inbounds nuw %struct.pkcs7_signer_info_st, ptr %21, i32 0, i32 7
  store ptr %20, ptr %22, align 8, !tbaa !103
  br label %23

23:                                               ; preds = %13, %8, %1
  %24 = load ptr, ptr %3, align 8, !tbaa !40
  call void @llvm.lifetime.end.p0(i64 8, ptr %3) #16
  ret ptr %24
}

; Function Attrs: nounwind sspstrong uwtable
define internal i64 @ossl_pkcs7si_new(ptr noundef %0) #0 {
  %2 = alloca ptr, align 8
  %3 = alloca ptr, align 8
  %4 = alloca i64, align 8
  store ptr %0, ptr %2, align 8, !tbaa !40
  call void @llvm.lifetime.start.p0(i64 8, ptr %3) #16
  call void @llvm.lifetime.start.p0(i64 8, ptr %4) #16
  %5 = load i64, ptr @cPKCS7Signer, align 8, !tbaa !11
  %6 = call i64 @rb_data_typed_object_wrap(i64 noundef %5, ptr noundef null, ptr noundef @ossl_pkcs7_signer_info_type)
  store i64 %6, ptr %4, align 8, !tbaa !11
  %7 = load ptr, ptr %2, align 8, !tbaa !40
  %8 = icmp ne ptr %7, null
  br i1 %8, label %9, label %12

9:                                                ; preds = %1
  %10 = load ptr, ptr %2, align 8, !tbaa !40
  %11 = call ptr @ossl_PKCS7_SIGNER_INFO_dup(ptr noundef %10)
  br label %14

12:                                               ; preds = %1
  %13 = call ptr @PKCS7_SIGNER_INFO_new()
  br label %14

14:                                               ; preds = %12, %9
  %15 = phi ptr [ %11, %9 ], [ %13, %12 ]
  store ptr %15, ptr %3, align 8, !tbaa !40
  %16 = load ptr, ptr %3, align 8, !tbaa !40
  %17 = icmp ne ptr %16, null
  br i1 %17, label %20, label %18

18:                                               ; preds = %14
  %19 = load i64, ptr @ePKCS7Error, align 8, !tbaa !11
  call void (i64, ptr, ...) @ossl_raise(i64 noundef %19, ptr noundef null) #17
  unreachable

20:                                               ; preds = %14
  br label %21

21:                                               ; preds = %20
  %22 = load ptr, ptr %3, align 8, !tbaa !40
  %23 = icmp ne ptr %22, null
  br i1 %23, label %26, label %24

24:                                               ; preds = %21
  %25 = load i64, ptr @rb_eRuntimeError, align 8, !tbaa !11
  call void (i64, ptr, ...) @ossl_raise(i64 noundef %25, ptr noundef @.str.73) #17
  unreachable

26:                                               ; preds = %21
  %27 = load ptr, ptr %3, align 8, !tbaa !40
  %28 = load i64, ptr %4, align 8, !tbaa !11
  %29 = inttoptr i64 %28 to ptr
  %30 = getelementptr inbounds nuw %struct.RTypedData, ptr %29, i32 0, i32 3
  store ptr %27, ptr %30, align 8, !tbaa !13
  br label %31

31:                                               ; preds = %26
  br label %32

32:                                               ; preds = %31
  %33 = load i64, ptr %4, align 8, !tbaa !11
  call void @llvm.lifetime.end.p0(i64 8, ptr %4) #16
  call void @llvm.lifetime.end.p0(i64 8, ptr %3) #16
  ret i64 %33
}

; Function Attrs: inlinehint nounwind sspstrong uwtable
define internal ptr @ossl_check_const_PKCS7_SIGNER_INFO_sk_type(ptr noundef %0) #4 {
  %2 = alloca ptr, align 8
  store ptr %0, ptr %2, align 8, !tbaa !42
  %3 = load ptr, ptr %2, align 8, !tbaa !42
  ret ptr %3
}

; Function Attrs: nounwind sspstrong uwtable
define internal i64 @ossl_pkcs7_get_signer(i64 noundef %0) #0 {
  %2 = alloca i64, align 8
  %3 = alloca i64, align 8
  %4 = alloca ptr, align 8
  %5 = alloca ptr, align 8
  %6 = alloca i32, align 4
  %7 = alloca i32, align 4
  %8 = alloca i64, align 8
  %9 = alloca i32, align 4
  %10 = alloca ptr, align 8
  store i64 %0, ptr %3, align 8, !tbaa !11
  call void @llvm.lifetime.start.p0(i64 8, ptr %4) #16
  call void @llvm.lifetime.start.p0(i64 8, ptr %5) #16
  call void @llvm.lifetime.start.p0(i64 4, ptr %6) #16
  call void @llvm.lifetime.start.p0(i64 4, ptr %7) #16
  call void @llvm.lifetime.start.p0(i64 8, ptr %8) #16
  br label %11

11:                                               ; preds = %1
  %12 = load i64, ptr %3, align 8, !tbaa !11
  %13 = call ptr @rb_check_typeddata(i64 noundef %12, ptr noundef @ossl_pkcs7_type)
  store ptr %13, ptr %4, align 8, !tbaa !6
  %14 = load ptr, ptr %4, align 8, !tbaa !6
  %15 = icmp ne ptr %14, null
  br i1 %15, label %18, label %16

16:                                               ; preds = %11
  %17 = load i64, ptr @rb_eRuntimeError, align 8, !tbaa !11
  call void (i64, ptr, ...) @ossl_raise(i64 noundef %17, ptr noundef @.str.1) #17
  unreachable

18:                                               ; preds = %11
  br label %19

19:                                               ; preds = %18
  br label %20

20:                                               ; preds = %19
  %21 = load ptr, ptr %4, align 8, !tbaa !6
  %22 = call ptr @PKCS7_get_signer_info(ptr noundef %21)
  store ptr %22, ptr %5, align 8, !tbaa !42
  %23 = icmp ne ptr %22, null
  br i1 %23, label %26, label %24

24:                                               ; preds = %20
  %25 = call i64 @rb_ary_new()
  store i64 %25, ptr %2, align 8
  store i32 1, ptr %9, align 4
  br label %51

26:                                               ; preds = %20
  %27 = load ptr, ptr %5, align 8, !tbaa !42
  %28 = call ptr @ossl_check_const_PKCS7_SIGNER_INFO_sk_type(ptr noundef %27)
  %29 = call i32 @OPENSSL_sk_num(ptr noundef %28)
  store i32 %29, ptr %6, align 4, !tbaa !20
  %30 = load i32, ptr %6, align 4, !tbaa !20
  %31 = sext i32 %30 to i64
  %32 = call i64 @rb_ary_new_capa(i64 noundef %31)
  store i64 %32, ptr %8, align 8, !tbaa !11
  store i32 0, ptr %7, align 4, !tbaa !20
  br label %33

33:                                               ; preds = %46, %26
  %34 = load i32, ptr %7, align 4, !tbaa !20
  %35 = load i32, ptr %6, align 4, !tbaa !20
  %36 = icmp slt i32 %34, %35
  br i1 %36, label %37, label %49

37:                                               ; preds = %33
  call void @llvm.lifetime.start.p0(i64 8, ptr %10) #16
  %38 = load ptr, ptr %5, align 8, !tbaa !42
  %39 = call ptr @ossl_check_const_PKCS7_SIGNER_INFO_sk_type(ptr noundef %38)
  %40 = load i32, ptr %7, align 4, !tbaa !20
  %41 = call ptr @OPENSSL_sk_value(ptr noundef %39, i32 noundef %40)
  store ptr %41, ptr %10, align 8, !tbaa !40
  %42 = load i64, ptr %8, align 8, !tbaa !11
  %43 = load ptr, ptr %10, align 8, !tbaa !40
  %44 = call i64 @ossl_pkcs7si_new(ptr noundef %43)
  %45 = call i64 @rb_ary_push(i64 noundef %42, i64 noundef %44)
  call void @llvm.lifetime.end.p0(i64 8, ptr %10) #16
  br label %46

46:                                               ; preds = %37
  %47 = load i32, ptr %7, align 4, !tbaa !20
  %48 = add nsw i32 %47, 1
  store i32 %48, ptr %7, align 4, !tbaa !20
  br label %33, !llvm.loop !44

49:                                               ; preds = %33
  %50 = load i64, ptr %8, align 8, !tbaa !11
  store i64 %50, ptr %2, align 8
  store i32 1, ptr %9, align 4
  br label %51

51:                                               ; preds = %49, %24
  call void @llvm.lifetime.end.p0(i64 8, ptr %8) #16
  call void @llvm.lifetime.end.p0(i64 4, ptr %7) #16
  call void @llvm.lifetime.end.p0(i64 4, ptr %6) #16
  call void @llvm.lifetime.end.p0(i64 8, ptr %5) #16
  call void @llvm.lifetime.end.p0(i64 8, ptr %4) #16
  %52 = load i64, ptr %2, align 8
  ret i64 %52
}