; Function Attrs: nounwind sspstrong uwtable
define internal i64 @ossl_pkcs7_get_signer(i64 noundef %0) #0 {
  %2 = tail call ptr @rb_check_typeddata(i64 noundef %0, ptr noundef nonnull @ossl_pkcs7_type) #5
  %.not = icmp eq ptr %2, null
  br i1 %.not, label %3, label %5

3:                                                ; preds = %1
  %4 = load i64, ptr @rb_eRuntimeError, align 8, !tbaa !6
  tail call void (i64, ptr, ...) @ossl_raise(i64 noundef %4, ptr noundef nonnull @.str.1) #6
  unreachable

5:                                                ; preds = %1
  %6 = tail call ptr @PKCS7_get_signer_info(ptr noundef nonnull %2) #5
  %.not16 = icmp eq ptr %6, null
  br i1 %.not16, label %7, label %9

7:                                                ; preds = %5
  %8 = tail call i64 @rb_ary_new() #5
  br label %.loopexit

9:                                                ; preds = %5
  %10 = tail call i32 @OPENSSL_sk_num(ptr noundef nonnull %6) #5
  %11 = sext i32 %10 to i64
  %12 = tail call i64 @rb_ary_new_capa(i64 noundef %11) #5
  %13 = icmp sgt i32 %10, 0
  br i1 %13, label %.lr.ph, label %.loopexit

.lr.ph:                                           ; preds = %9, %ossl_pkcs7si_new.exit
  %.01317 = phi i32 [ %32, %ossl_pkcs7si_new.exit ], [ 0, %9 ]
  %14 = tail call ptr @OPENSSL_sk_value(ptr noundef nonnull %6, i32 noundef %.01317) #5
  %15 = load i64, ptr @cPKCS7Signer, align 8, !tbaa !6
  %16 = tail call i64 @rb_data_typed_object_wrap(i64 noundef %15, ptr noundef null, ptr noundef nonnull @ossl_pkcs7_signer_info_type) #5
  %.not.i = icmp eq ptr %14, null
  br i1 %.not.i, label %ossl_PKCS7_SIGNER_INFO_dup.exit.i, label %17

17:                                               ; preds = %.lr.ph
  %18 = tail call ptr @ASN1_dup(ptr noundef nonnull @i2d_PKCS7_SIGNER_INFO, ptr noundef nonnull @d2i_PKCS7_SIGNER_INFO, ptr noundef nonnull %14) #5
  %.not.i.i = icmp eq ptr %18, null
  br i1 %.not.i.i, label %ossl_PKCS7_SIGNER_INFO_dup.exit.thread9.i, label %19

19:                                               ; preds = %17
  %20 = getelementptr inbounds nuw i8, ptr %14, i64 56
  %21 = load ptr, ptr %20, align 8, !tbaa !43
  %.not8.i.i = icmp eq ptr %21, null
  br i1 %.not8.i.i, label %ossl_pkcs7si_new.exit, label %22

22:                                               ; preds = %19
  %23 = tail call i32 @EVP_PKEY_up_ref(ptr noundef nonnull %21) #5
  %24 = load ptr, ptr %20, align 8, !tbaa !43
  %25 = getelementptr inbounds nuw i8, ptr %18, i64 56
  store ptr %24, ptr %25, align 8, !tbaa !43
  br label %ossl_pkcs7si_new.exit

ossl_PKCS7_SIGNER_INFO_dup.exit.i:                ; preds = %.lr.ph
  %26 = tail call ptr @PKCS7_SIGNER_INFO_new() #5
  %.not7.i = icmp eq ptr %26, null
  br i1 %.not7.i, label %ossl_PKCS7_SIGNER_INFO_dup.exit.thread9.i, label %ossl_pkcs7si_new.exit

ossl_PKCS7_SIGNER_INFO_dup.exit.thread9.i:        ; preds = %ossl_PKCS7_SIGNER_INFO_dup.exit.i, %17
  %27 = load i64, ptr @ePKCS7Error, align 8, !tbaa !6
  tail call void (i64, ptr, ...) @ossl_raise(i64 noundef %27, ptr noundef null) #6
  unreachable

ossl_pkcs7si_new.exit:                            ; preds = %19, %22, %ossl_PKCS7_SIGNER_INFO_dup.exit.i
  %28 = phi ptr [ %26, %ossl_PKCS7_SIGNER_INFO_dup.exit.i ], [ %18, %19 ], [ %18, %22 ]
  %29 = inttoptr i64 %16 to ptr
  %30 = getelementptr inbounds nuw i8, ptr %29, i64 32
  store ptr %28, ptr %30, align 8, !tbaa !10
  %31 = tail call i64 @rb_ary_push(i64 noundef %12, i64 noundef %16) #5
  %32 = add nuw nsw i32 %.01317, 1
  %exitcond.not = icmp eq i32 %32, %10
  br i1 %exitcond.not, label %.loopexit, label %.lr.ph, !llvm.loop !51

.loopexit:                                        ; preds = %ossl_pkcs7si_new.exit, %9, %7
  %.0 = phi i64 [ %8, %7 ], [ %12, %9 ], [ %12, %ossl_pkcs7si_new.exit ]
  ret i64 %.0
}